target datalayout = "e-m:e-p270:32:32-p271:32:32-p272:64:64-i64:64-i128:128-f80:128-n8:16:32:64-S128"
target triple = "x86_64-pc-linux-gnu"

%struct.mspack_system = type { ptr, ptr, ptr, ptr, ptr, ptr, ptr, ptr, ptr, ptr, ptr }
%struct.lzxd_stream = type { ptr, ptr, ptr, i64, i64, ptr, i32, i32, i32, i32, i32, i32, i32, i32, i32, i32, i32, i32, i32, i8, i8, i8, i8, i8, i32, ptr, ptr, ptr, ptr, ptr, i32, i32, i32, [84 x i8], [2640 x i8], [314 x i8], [72 x i8], [104 x i16], [9248 x i16], [4596 x i16], [144 x i16], i8, [32768 x i8] }

; Function Attrs: nounwind uwtable
define void @lzxd_free(ptr noundef %0) #0 {
  %2 = alloca ptr, align 8
  %3 = alloca ptr, align 8
  store ptr %0, ptr %2, align 8
  %4 = load ptr, ptr %2, align 8
  %5 = icmp ne ptr %4, null
  br i1 %5, label %6, label %26

6:                                                ; preds = %1
  %7 = load ptr, ptr %2, align 8
  %8 = getelementptr inbounds %struct.lzxd_stream, ptr %7, i32 0, i32 0
  %9 = load ptr, ptr %8, align 8
  store ptr %9, ptr %3, align 8
  %10 = load ptr, ptr %3, align 8
  %11 = getelementptr inbounds %struct.mspack_system, ptr %10, i32 0, i32 8
  %12 = load ptr, ptr %11, align 8
  %13 = load ptr, ptr %2, align 8
  %14 = getelementptr inbounds %struct.lzxd_stream, ptr %13, i32 0, i32 25
  %15 = load ptr, ptr %14, align 8
  call void %12(ptr noundef %15)
  %16 = load ptr, ptr %3, align 8
  %17 = getelementptr inbounds %struct.mspack_system, ptr %16, i32 0, i32 8
  %18 = load ptr, ptr %17, align 8
  %19 = load ptr, ptr %2, align 8
  %20 = getelementptr inbounds %struct.lzxd_stream, ptr %19, i32 0, i32 5
  %21 = load ptr, ptr %20, align 8
  call void %18(ptr noundef %21)
  %22 = load ptr, ptr %3, align 8
  %23 = getelementptr inbounds %struct.mspack_system, ptr %22, i32 0, i32 8
  %24 = load ptr, ptr %23, align 8
  %25 = load ptr, ptr %2, align 8
  call void %24(ptr noundef %25)
  br label %26

26:                                               ; preds = %6, %1
  ret void
}