; Function Attrs: nounwind uwtable
define void @lzxd_free(ptr noundef %0) local_unnamed_addr #0 {
  %.not = icmp eq ptr %0, null
  br i1 %.not, label %12, label %2

2:                                                ; preds = %1
  %3 = load ptr, ptr %0, align 8
  %4 = getelementptr inbounds i8, ptr %3, i64 64
  %5 = load ptr, ptr %4, align 8
  %6 = getelementptr inbounds i8, ptr %0, i64 112
  %7 = load ptr, ptr %6, align 8
  tail call void %5(ptr noundef %7) #5
  %8 = load ptr, ptr %4, align 8
  %9 = getelementptr inbounds i8, ptr %0, i64 40
  %10 = load ptr, ptr %9, align 8
  tail call void %8(ptr noundef %10) #5
  %11 = load ptr, ptr %4, align 8
  tail call void %11(ptr noundef nonnull %0) #5
  br label %12

12:                                               ; preds = %2, %1
  ret void
}